; Function Attrs: null_pointer_is_valid sspstrong uwtable
define internal fastcc void @dissect_wccp2_router_assignment_element(ptr noundef %0, i32 noundef %1, ptr noundef %2, ptr noundef %3, ptr noundef readonly captures(none) %4) unnamed_addr #0 {
  %6 = load i32, ptr @hf_router_identity_ip_index, align 4
  %7 = load i32, ptr @hf_router_identity_ipv4, align 4
  %8 = load i32, ptr @hf_router_identity_ipv6, align 4
  %9 = tail call fastcc ptr @wccp_add_ipaddress_item(ptr noundef %3, i32 noundef %6, i32 noundef %7, i32 noundef %8, ptr noundef %0, i32 noundef %1, ptr noundef readonly %4)
  %10 = load i32, ptr @hf_router_identity_receive_id, align 4
  %11 = add i32 %1, 4
  %12 = tail call ptr @proto_tree_add_item(ptr noundef %3, i32 noundef %10, ptr noundef %0, i32 noundef %11, i32 noundef 4, i32 noundef 0)
  %13 = tail call i32 @tvb_get_ntohl(ptr noundef %0, i32 noundef %11)
  %14 = icmp eq i32 %13, 0
  br i1 %14, label %15, label %dissect_wccp2_router_identity_element.exit

15:                                               ; preds = %5
  %16 = tail call ptr @expert_add_info(ptr noundef %2, ptr noundef %12, ptr noundef nonnull @ei_wccp_router_identity_receive_id_zero)
  br label %dissect_wccp2_router_identity_element.exit

dissect_wccp2_router_identity_element.exit:       ; preds = %5, %15
  %17 = add i32 %1, 8
  %18 = load i32, ptr @hf_router_assignment_element_change_num, align 4
  %19 = tail call ptr @proto_tree_add_item(ptr noundef %3, i32 noundef %18, ptr noundef %0, i32 noundef %17, i32 noundef 4, i32 noundef 0)
  ret void
}